; Function Attrs: mustprogress nofree norecurse nosync nounwind memory(read, argmem: readwrite, inaccessiblemem: none) uwtable
define void @_ZN6colvar7inertia10calc_valueEv(ptr noundef nonnull align 8 captures(none) dereferenceable(1616) initializes((600, 608)) %0) unnamed_addr #10 align 2 {
  %2 = getelementptr inbounds nuw i8, ptr %0, i64 600
  store double 0.000000e+00, ptr %2, align 8, !tbaa !98
  %3 = getelementptr inbounds nuw i8, ptr %0, i64 1608
  %4 = load ptr, ptr %3, align 8, !tbaa !324
  %5 = getelementptr inbounds nuw i8, ptr %4, i64 504
  %6 = load ptr, ptr %5, align 8, !tbaa !249
  %7 = getelementptr inbounds nuw i8, ptr %4, i64 512
  %8 = load ptr, ptr %7, align 8, !tbaa !249
  %.not4 = icmp eq ptr %6, %8
  br i1 %.not4, label %9, label %.lr.ph

._crit_edge:                                      ; preds = %.lr.ph
  store double %20, ptr %2, align 8, !tbaa !98
  br label %9

9:                                                ; preds = %._crit_edge, %1
  ret void

.lr.ph:                                           ; preds = %1, %.lr.ph
  %.sroa.01.05 = phi ptr [ %21, %.lr.ph ], [ %6, %1 ]
  %10 = phi double [ %20, %.lr.ph ], [ 0.000000e+00, %1 ]
  %11 = getelementptr inbounds nuw i8, ptr %.sroa.01.05, i64 24
  %12 = load double, ptr %11, align 8, !tbaa !95
  %13 = getelementptr inbounds nuw i8, ptr %.sroa.01.05, i64 32
  %14 = load double, ptr %13, align 8, !tbaa !96
  %15 = fmul double %14, %14
  %16 = tail call double @llvm.fmuladd.f64(double %12, double %12, double %15)
  %17 = getelementptr inbounds nuw i8, ptr %.sroa.01.05, i64 40
  %18 = load double, ptr %17, align 8, !tbaa !97
  %19 = tail call noundef double @llvm.fmuladd.f64(double %18, double %18, double %16)
  %20 = fadd double %10, %19
  %21 = getelementptr inbounds nuw i8, ptr %.sroa.01.05, i64 120
  %.not = icmp eq ptr %21, %8
  br i1 %.not, label %._crit_edge, label %.lr.ph, !llvm.loop !344
}